target datalayout = "e-m:e-p270:32:32-p271:32:32-p272:64:64-i64:64-i128:128-f80:128-n8:16:32:64-S128"
target triple = "x86_64-pc-linux-gnu"

%struct.CVodeMemRec = type { double, ptr, ptr, i32, i32, i32, double, double, ptr, i32, ptr, ptr, i32, ptr, i32, i32, double, double, ptr, i32, i32, i32, ptr, ptr, ptr, i32, i32, ptr, ptr, ptr, i32, double, i32, i32, double, ptr, ptr, i32, ptr, ptr, i32, i32, i32, double, ptr, ptr, [13 x ptr], ptr, ptr, ptr, ptr, ptr, [13 x ptr], ptr, ptr, ptr, ptr, [13 x ptr], ptr, ptr, ptr, ptr, ptr, i32, [13 x ptr], ptr, ptr, ptr, ptr, ptr, i32, double, i32, i32, i32, i32, i32, double, double, double, double, double, double, double, double, [14 x double], [6 x double], [13 x double], double, double, double, double, double, double, double, double, double, double, double, i32, ptr, i32, i64, i32, i32, i32, i32, i32, double, double, double, i64, i64, i64, i64, i64, i64, i64, i64, i64, ptr, i64, i64, ptr, i64, i64, i64, i64, i64, i64, i32, i64, i64, i64, i64, i64, i64, double, double, double, ptr, ptr, ptr, ptr, ptr, i32, i32, i64, double, double, double, i32, double, i32, i32, i32, i32, i32, i32, i32, i32, i32, i32, i32, i32, i32, i32, i32, i32, ptr, ptr, ptr, i32, [6 x [4 x double]], i32, i64, ptr, i32, ptr, ptr, double, double, double, ptr, ptr, ptr, double, double, i32, i32, i64, ptr, i32, i32, ptr, i32 }

@_ZTISt9exception = external constant ptr
@.str.109 = private unnamed_addr constant [16 x i8] c"lsetup failed: \00", align 1

; Function Attrs: mustprogress uwtable
define noundef i32 @_ZN6casadi15CvodesInterface7lsetupFEP11CVodeMemReciP17_generic_N_VectorS4_PiS4_S4_S4_(ptr noundef %0, i32 noundef %1, ptr noundef %2, ptr noundef %3, ptr noundef %4, ptr noundef %5, ptr noundef %6, ptr noundef %7) #4 align 2 personality ptr @__gxx_personality_v0 {
  %9 = alloca i32, align 4
  %10 = alloca ptr, align 8
  %11 = alloca i32, align 4
  %12 = alloca ptr, align 8
  %13 = alloca ptr, align 8
  %14 = alloca ptr, align 8
  %15 = alloca ptr, align 8
  %16 = alloca ptr, align 8
  %17 = alloca ptr, align 8
  %18 = alloca ptr, align 8
  %19 = alloca ptr, align 8
  %20 = alloca i32, align 4
  %21 = alloca ptr, align 8
  store ptr %0, ptr %10, align 8
  store i32 %1, ptr %11, align 4
  store ptr %2, ptr %12, align 8
  store ptr %3, ptr %13, align 8
  store ptr %4, ptr %14, align 8
  store ptr %5, ptr %15, align 8
  store ptr %6, ptr %16, align 8
  store ptr %7, ptr %17, align 8
  %22 = load ptr, ptr %10, align 8
  %23 = getelementptr inbounds %struct.CVodeMemRec, ptr %22, i32 0, i32 144
  %24 = load ptr, ptr %23, align 8
  %25 = invoke noundef ptr @_ZN6casadi15CvodesInterface6to_memEPv(ptr noundef %24)
          to label %26 unwind label %42

26:                                               ; preds = %8
  store ptr %25, ptr %18, align 8
  %27 = load ptr, ptr %10, align 8
  %28 = getelementptr inbounds %struct.CVodeMemRec, ptr %27, i32 0, i32 83
  %29 = load double, ptr %28, align 8
  %30 = load ptr, ptr %12, align 8
  %31 = load ptr, ptr %13, align 8
  %32 = load ptr, ptr %14, align 8
  %33 = load ptr, ptr %10, align 8
  %34 = getelementptr inbounds %struct.CVodeMemRec, ptr %33, i32 0, i32 89
  %35 = load double, ptr %34, align 8
  %36 = load ptr, ptr %18, align 8
  %37 = load ptr, ptr %15, align 8
  %38 = load ptr, ptr %16, align 8
  %39 = load ptr, ptr %17, align 8
  %40 = invoke noundef i32 @_ZN6casadi15CvodesInterface7psetupFEdP17_generic_N_VectorS2_iPidPvS2_S2_S2_(double noundef %29, ptr noundef %30, ptr noundef %31, i32 noundef 0, ptr noundef %32, double noundef %35, ptr noundef %36, ptr noundef %37, ptr noundef %38, ptr noundef %39)
          to label %41 unwind label %42

41:                                               ; preds = %26
  store i32 %40, ptr %9, align 4
  br label %72

42:                                               ; preds = %26, %8
  %43 = landingpad { ptr, i32 }
          catch ptr @_ZTISt9exception
  %44 = extractvalue { ptr, i32 } %43, 0
  store ptr %44, ptr %19, align 8
  %45 = extractvalue { ptr, i32 } %43, 1
  store i32 %45, ptr %20, align 4
  br label %46

46:                                               ; preds = %42
  %47 = load i32, ptr %20, align 4
  %48 = call i32 @llvm.eh.typeid.for(ptr @_ZTISt9exception) #3
  %49 = icmp eq i32 %47, %48
  br i1 %49, label %50, label %74

50:                                               ; preds = %46
  %51 = load ptr, ptr %19, align 8
  %52 = call ptr @__cxa_begin_catch(ptr %51) #3
  store ptr %52, ptr %21, align 8
  %53 = invoke noundef nonnull align 8 dereferenceable(8) ptr @_ZN6casadi4uerrEv()
          to label %54 unwind label %66

54:                                               ; preds = %50
  %55 = invoke noundef nonnull align 8 dereferenceable(8) ptr @_ZStlsISt11char_traitsIcEERSt13basic_ostreamIcT_ES5_PKc(ptr noundef nonnull align 8 dereferenceable(8) %53, ptr noundef @.str.109)
          to label %56 unwind label %66

56:                                               ; preds = %54
  %57 = load ptr, ptr %21, align 8
  %58 = load ptr, ptr %57, align 8
  %59 = getelementptr inbounds ptr, ptr %58, i64 2
  %60 = load ptr, ptr %59, align 8
  %61 = call noundef ptr %60(ptr noundef nonnull align 8 dereferenceable(8) %57) #3
  %62 = invoke noundef nonnull align 8 dereferenceable(8) ptr @_ZStlsISt11char_traitsIcEERSt13basic_ostreamIcT_ES5_PKc(ptr noundef nonnull align 8 dereferenceable(8) %55, ptr noundef %61)
          to label %63 unwind label %66

63:                                               ; preds = %56
  %64 = invoke noundef nonnull align 8 dereferenceable(8) ptr @_ZNSolsEPFRSoS_E(ptr noundef nonnull align 8 dereferenceable(8) %62, ptr noundef @_ZSt4endlIcSt11char_traitsIcEERSt13basic_ostreamIT_T0_ES6_)
          to label %65 unwind label %66

65:                                               ; preds = %63
  store i32 -1, ptr %9, align 4
  call void @__cxa_end_catch()
  br label %72

66:                                               ; preds = %63, %56, %54, %50
  %67 = landingpad { ptr, i32 }
          cleanup
  %68 = extractvalue { ptr, i32 } %67, 0
  store ptr %68, ptr %19, align 8
  %69 = extractvalue { ptr, i32 } %67, 1
  store i32 %69, ptr %20, align 4
  invoke void @__cxa_end_catch()
          to label %70 unwind label %79

70:                                               ; preds = %66
  br label %74

71:                                               ; No predecessors!
  call void @llvm.trap()
  unreachable

72:                                               ; preds = %65, %41
  %73 = load i32, ptr %9, align 4
  ret i32 %73

74:                                               ; preds = %70, %46
  %75 = load ptr, ptr %19, align 8
  %76 = load i32, ptr %20, align 4
  %77 = insertvalue { ptr, i32 } poison, ptr %75, 0
  %78 = insertvalue { ptr, i32 } %77, i32 %76, 1
  resume { ptr, i32 } %78

79:                                               ; preds = %66
  %80 = landingpad { ptr, i32 }
          catch ptr null
  %81 = extractvalue { ptr, i32 } %80, 0
  call void @__clang_call_terminate(ptr %81) #17
  unreachable
}