; Function Attrs: mustprogress uwtable
define noundef i32 @_ZN6casadi15CvodesInterface7lsetupFEP11CVodeMemReciP17_generic_N_VectorS4_PiS4_S4_S4_(ptr nocapture noundef readonly %0, i32 %1, ptr nocapture noundef readonly %2, ptr nocapture noundef readnone %3, ptr noundef %4, ptr nocapture noundef readnone %5, ptr nocapture noundef readnone %6, ptr nocapture noundef readnone %7) #3 align 2 personality ptr @__gxx_personality_v0 {
  %9 = getelementptr inbounds i8, ptr %0, i64 1696
  %10 = load ptr, ptr %9, align 8
  %11 = invoke noundef ptr @_ZN6casadi15CvodesInterface6to_memEPv(ptr noundef %10)
          to label %12 unwind label %18

12:                                               ; preds = %8
  %13 = getelementptr inbounds i8, ptr %0, i64 984
  %14 = load double, ptr %13, align 8
  %15 = getelementptr inbounds i8, ptr %0, i64 1272
  %16 = load double, ptr %15, align 8
  %17 = invoke noundef i32 @_ZN6casadi15CvodesInterface7psetupFEdP17_generic_N_VectorS2_iPidPvS2_S2_S2_(double noundef %14, ptr noundef %2, ptr poison, i32 poison, ptr noundef %4, double noundef %16, ptr noundef %11, ptr poison, ptr poison, ptr poison)
          to label %40 unwind label %18, !range !30

18:                                               ; preds = %12, %8
  %19 = landingpad { ptr, i32 }
          catch ptr @_ZTISt9exception
  %20 = extractvalue { ptr, i32 } %19, 1
  %21 = tail call i32 @llvm.eh.typeid.for(ptr nonnull @_ZTISt9exception) #20
  %22 = icmp eq i32 %20, %21
  br i1 %22, label %23, label %41

23:                                               ; preds = %18
  %24 = extractvalue { ptr, i32 } %19, 0
  %25 = tail call ptr @__cxa_begin_catch(ptr %24) #20
  %26 = invoke noundef nonnull align 8 dereferenceable(8) ptr @_ZN6casadi4uerrEv()
          to label %27 unwind label %38

27:                                               ; preds = %23
  %28 = invoke noundef nonnull align 8 dereferenceable(8) ptr @_ZStlsISt11char_traitsIcEERSt13basic_ostreamIcT_ES5_PKc(ptr noundef nonnull align 8 dereferenceable(8) %26, ptr noundef nonnull @.str.109)
          to label %29 unwind label %38

29:                                               ; preds = %27
  %30 = load ptr, ptr %25, align 8
  %31 = getelementptr inbounds i8, ptr %30, i64 16
  %32 = load ptr, ptr %31, align 8
  %33 = tail call noundef ptr %32(ptr noundef nonnull align 8 dereferenceable(8) %25) #20
  %34 = invoke noundef nonnull align 8 dereferenceable(8) ptr @_ZStlsISt11char_traitsIcEERSt13basic_ostreamIcT_ES5_PKc(ptr noundef nonnull align 8 dereferenceable(8) %28, ptr noundef %33)
          to label %35 unwind label %38

35:                                               ; preds = %29
  %36 = invoke noundef nonnull align 8 dereferenceable(8) ptr @_ZNSolsEPFRSoS_E(ptr noundef nonnull align 8 dereferenceable(8) %34, ptr noundef nonnull @_ZSt4endlIcSt11char_traitsIcEERSt13basic_ostreamIT_T0_ES6_)
          to label %37 unwind label %38

37:                                               ; preds = %35
  tail call void @__cxa_end_catch()
  br label %40

38:                                               ; preds = %35, %29, %27, %23
  %39 = landingpad { ptr, i32 }
          cleanup
  invoke void @__cxa_end_catch()
          to label %41 unwind label %42

40:                                               ; preds = %12, %37
  %.0 = phi i32 [ -1, %37 ], [ %17, %12 ]
  ret i32 %.0

41:                                               ; preds = %38, %18
  %.merged = phi { ptr, i32 } [ %39, %38 ], [ %19, %18 ]
  resume { ptr, i32 } %.merged

42:                                               ; preds = %38
  %43 = landingpad { ptr, i32 }
          catch ptr null
  %44 = extractvalue { ptr, i32 } %43, 0
  tail call void @__clang_call_terminate(ptr %44) #23
  unreachable
}